Certificate:
    Data:
        Version: 3 (0x2)
        Serial Number: 2 (0x2)
    Signature Algorithm: sha256WithRSAEncryption
        Issuer: C=CN, ST=CA, L=SanFrancisco, O=Fort-Funston, OU=MyOrganizationalUnit, CN=Fort-Funston CA/name=server/emailAddress=me@myhost.mydomain
        Validity
            Not Before: Jan 25 13:28:46 2016 GMT
            Not After : Jan 22 13:28:46 2026 GMT
        Subject: C=CN, ST=CA, L=SanFrancisco, O=Fort-Funston, OU=MyOrganizationalUnit, CN=client1/name=server/emailAddress=me@myhost.mydomain
        Subject Public Key Info:
            Public Key Algorithm: rsaEncryption
                Public-Key: (2048 bit)
                Modulus:
                    00:d7:57:f5:52:d0:ec:3e:91:2f:b2:69:fa:e2:6a:
                    73:1e:8c:54:11:97:b8:60:41:14:53:55:4a:19:86:
                    cd:17:4c:a4:96:c5:d3:de:54:88:56:03:12:bd:de:
                    c3:46:bc:d7:75:db:f3:5f:88:e8:01:c5:21:f8:1f:
                    47:1f:6a:4b:af:01:2b:32:9f:e2:bd:90:66:29:e2:
                    cc:28:85:50:f9:3a:1d:61:7d:d9:9f:26:27:bf:50:
                    f0:3b:bf:03:c5:9c:18:4e:6a:ab:5b:64:98:7d:d7:
                    12:a2:b7:21:7b:41:fc:72:e5:3c:fc:90:21:5a:5f:
                    bc:5b:c5:ab:b2:56:06:84:45:b9:c7:09:bd:43:2c:
                    49:95:37:88:13:96:94:b8:fd:94:88:b7:bf:76:48:
                    8a:67:c0:35:fa:26:f0:01:0f:be:4f:b2:93:64:db:
                    f7:5a:0a:35:1a:a9:77:fa:9d:bf:49:9b:e6:ec:6d:
                    d1:79:ea:30:ed:10:b0:76:f6:b1:b9:2c:2f:1b:f9:
                    93:92:6b:bb:64:ff:d7:b4:7e:b7:28:fa:a1:23:28:
                    09:63:fa:2f:e7:2e:96:d2:40:83:aa:0b:ac:39:7c:
                    84:f1:4e:89:97:d6:18:f8:bd:a4:7f:a3:95:d7:64:
                    f6:f7:cf:ce:c9:c3:c9:dd:e4:79:41:a4:77:1d:e6:
                    38:a7
                Exponent: 65537 (0x10001)
        X509v3 extensions:
            X509v3 Basic Constraints: 
                CA:FALSE
            Netscape Comment: 
                Easy-RSA Generated Certificate
            X509v3 Subject Key Identifier: 
                EB:45:F5:E1:88:32:70:AA:E1:80:EB:A1:57:2C:C7:95:43:AB:AF:CE
            X509v3 Authority Key Identifier: 
                keyid:4A:0F:03:E2:5F:BA:F8:4A:39:FB:38:20:13:3C:E4:E4:CE:64:DE:A7
                DirName:/C=CN/ST=CA/L=SanFrancisco/O=Fort-Funston/OU=MyOrganizationalUnit/CN=Fort-Funston CA/name=server/emailAddress=me@myhost.mydomain
                serial:93:02:C3:7D:ED:AB:E1:E7

            X509v3 Extended Key Usage: 
                TLS Web Client Authentication
            X509v3 Key Usage: 
                Digital Signature
    Signature Algorithm: sha256WithRSAEncryption
         17:49:8a:83:fe:e7:56:10:2a:d4:37:50:29:97:28:8b:a0:90:
         5b:56:d2:16:10:da:13:e8:ef:85:ca:18:08:55:49:ca:81:5a:
         bf:44:de:9a:47:13:6c:f1:cf:13:86:e2:d2:1c:ab:e2:9f:a8:
         d3:3c:55:67:34:51:77:93:56:86:48:25:5c:af:82:52:ef:db:
         cf:ed:fc:96:e7:83:c9:e4:b3:74:9f:8d:9c:20:7b:d2:e1:49:
         9f:50:35:9b:32:56:b4:f2:a5:09:0f:1d:d4:d2:21:c2:bb:0d:
         6e:11:82:a4:81:29:90:15:55:20:31:89:36:46:27:73:46:58:
         1c:37:55:64:ab:8c:f0:87:a1:0e:96:8a:3a:a8:16:cc:d5:19:
         c5:76:56:0e:dc:71:24:2b:ab:9b:79:17:b8:53:d3:9c:20:40:
         d2:d3:5d:0b:a1:d2:9e:a4:a3:9c:1e:ba:28:7b:35:84:c8:f1:
         6e:37:3e:1c:54:31:fa:19:82:53:d0:40:ba:c4:02:85:f6:28:
         89:59:8f:f4:d2:d0:49:7b:a2:83:44:ce:55:cd:29:b9:ad:c8:
         be:88:f9:06:d9:ca:3b:c1:e4:ce:09:4a:e8:e3:fb:35:69:6b:
         14:0d:eb:ff:55:8b:cc:e3:4d:bc:ad:b2:33:35:55:c6:0f:d0:
         1b:b5:02:73
-----BEGIN CERTIFICATE-----
MIIFTTCCBDWgAwIBAgIBAjANBgkqhkiG9w0BAQsFADCBtTELMAkGA1UEBhMCQ04x
CzAJBgNVBAgTAkNBMRUwEwYDVQQHEwxTYW5GcmFuY2lzY28xFTATBgNVBAoTDEZv
cnQtRnVuc3RvbjEdMBsGA1UECxMUTXlPcmdhbml6YXRpb25hbFVuaXQxGDAWBgNV
BAMTD0ZvcnQtRnVuc3RvbiBDQTEPMA0GA1UEKRMGc2VydmVyMSEwHwYJKoZIhvcN
AQkBFhJtZUBteWhvc3QubXlkb21haW4wHhcNMTYwMTI1MTMyODQ2WhcNMjYwMTIy
MTMyODQ2WjCBrTELMAkGA1UEBhMCQ04xCzAJBgNVBAgTAkNBMRUwEwYDVQQHEwxT
YW5GcmFuY2lzY28xFTATBgNVBAoTDEZvcnQtRnVuc3RvbjEdMBsGA1UECxMUTXlP
cmdhbml6YXRpb25hbFVuaXQxEDAOBgNVBAMTB2NsaWVudDExDzANBgNVBCkTBnNl
cnZlcjEhMB8GCSqGSIb3DQEJARYSbWVAbXlob3N0Lm15ZG9tYWluMIIBIjANBgkq
hkiG9w0BAQEFAAOCAQ8AMIIBCgKCAQEA11f1UtDsPpEvsmn64mpzHoxUEZe4YEEU
U1VKGYbNF0yklsXT3lSIVgMSvd7DRrzXddvzX4joAcUh+B9HH2pLrwErMp/ivZBm
KeLMKIVQ+TodYX3ZnyYnv1DwO78DxZwYTmqrW2SYfdcSorche0H8cuU8/JAhWl+8
W8WrslYGhEW5xwm9QyxJlTeIE5aUuP2UiLe/dkiKZ8A1+ibwAQ++T7KTZNv3Wgo1
Gql3+p2/SZvm7G3Reeow7RCwdvaxuSwvG/mTkmu7ZP/XtH63KPqhIygJY/ov5y6W
0kCDqgusOXyE8U6Jl9YY+L2kf6OV12T298/OycPJ3eR5QaR3HeY4pwIDAQABo4IB
bDCCAWgwCQYDVR0TBAIwADAtBglghkgBhvhCAQ0EIBYeRWFzeS1SU0EgR2VuZXJh
dGVkIENlcnRpZmljYXRlMB0GA1UdDgQWBBTrRfXhiDJwquGA66FXLMeVQ6uvzjCB
6gYDVR0jBIHiMIHfgBRKDwPiX7r4Sjn7OCATPOTkzmTep6GBu6SBuDCBtTELMAkG
A1UEBhMCQ04xCzAJBgNVBAgTAkNBMRUwEwYDVQQHEwxTYW5GcmFuY2lzY28xFTAT
BgNVBAoTDEZvcnQtRnVuc3RvbjEdMBsGA1UECxMUTXlPcmdhbml6YXRpb25hbFVu
aXQxGDAWBgNVBAMTD0ZvcnQtRnVuc3RvbiBDQTEPMA0GA1UEKRMGc2VydmVyMSEw
HwYJKoZIhvcNAQkBFhJtZUBteWhvc3QubXlkb21haW6CCQCTAsN97avh5zATBgNV
HSUEDDAKBggrBgEFBQcDAjALBgNVHQ8EBAMCB4AwDQYJKoZIhvcNAQELBQADggEB
ABdJioP+51YQKtQ3UCmXKIugkFtW0hYQ2hPo74XKGAhVScqBWr9E3ppHE2zxzxOG
4tIcq+KfqNM8VWc0UXeTVoZIJVyvglLv28/t/Jbng8nks3SfjZwge9LhSZ9QNZsy
VrTypQkPHdTSIcK7DW4RgqSBKZAVVSAxiTZGJ3NGWBw3VWSrjPCHoQ6WijqoFszV
GcV2Vg7ccSQrq5t5F7hT05wgQNLTXQuh0p6ko5weuih7NYTI8W43PhxUMfoZglPQ
QLrEAoX2KIlZj/TS0El7ooNEzlXNKbmtyL6I+QbZyjvB5M4JSujj+zVpaxQN6/9V
i8zjTbytsjM1VcYP0Bu1AnM=
-----END CERTIFICATE-----
